target datalayout = "e-m:e-p270:32:32-p271:32:32-p272:64:64-i64:64-i128:128-f80:128-n8:16:32:64-S128"
target triple = "x86_64-pc-linux-gnu"

%struct.buf_t = type { i32, ptr, i32, i32, i8, i8 }

; Function Attrs: nounwind uwtable
define dso_local i32 @unpackmem_array(ptr noundef %0, i32 noundef %1, ptr noundef %2) #0 {
  %4 = alloca i32, align 4
  %5 = alloca ptr, align 8
  %6 = alloca i32, align 4
  %7 = alloca ptr, align 8
  store ptr %0, ptr %5, align 8
  store i32 %1, ptr %6, align 4
  store ptr %2, ptr %7, align 8
  %8 = load ptr, ptr %7, align 8
  %9 = getelementptr inbounds nuw %struct.buf_t, ptr %8, i32 0, i32 2
  %10 = load i32, ptr %9, align 8
  %11 = load ptr, ptr %7, align 8
  %12 = getelementptr inbounds nuw %struct.buf_t, ptr %11, i32 0, i32 3
  %13 = load i32, ptr %12, align 4
  %14 = sub i32 %10, %13
  %15 = load i32, ptr %6, align 4
  %16 = icmp uge i32 %14, %15
  br i1 %16, label %17, label %34

17:                                               ; preds = %3
  %18 = load ptr, ptr %5, align 8
  %19 = load ptr, ptr %7, align 8
  %20 = getelementptr inbounds nuw %struct.buf_t, ptr %19, i32 0, i32 1
  %21 = load ptr, ptr %20, align 8
  %22 = load ptr, ptr %7, align 8
  %23 = getelementptr inbounds nuw %struct.buf_t, ptr %22, i32 0, i32 3
  %24 = load i32, ptr %23, align 4
  %25 = zext i32 %24 to i64
  %26 = getelementptr inbounds nuw i8, ptr %21, i64 %25
  %27 = load i32, ptr %6, align 4
  %28 = zext i32 %27 to i64
  call void @llvm.memcpy.p0.p0.i64(ptr align 1 %18, ptr align 1 %26, i64 %28, i1 false)
  %29 = load i32, ptr %6, align 4
  %30 = load ptr, ptr %7, align 8
  %31 = getelementptr inbounds nuw %struct.buf_t, ptr %30, i32 0, i32 3
  %32 = load i32, ptr %31, align 4
  %33 = add i32 %32, %29
  store i32 %33, ptr %31, align 4
  store i32 0, ptr %4, align 4
  br label %36

34:                                               ; preds = %3
  %35 = load ptr, ptr %5, align 8
  store i8 0, ptr %35, align 1
  store i32 -1, ptr %4, align 4
  br label %36

36:                                               ; preds = %34, %17
  %37 = load i32, ptr %4, align 4
  ret i32 %37
}