; Function Attrs: mustprogress nofree norecurse nosync nounwind willreturn memory(readwrite, inaccessiblemem: none) uwtable
define dso_local range(i32 -1, 1) i32 @unpackmem_array(ptr noundef writeonly captures(none) %0, i32 noundef %1, ptr noundef captures(none) %2) #2 {
  %4 = getelementptr inbounds nuw i8, ptr %2, i64 16
  %5 = load i32, ptr %4, align 8
  %6 = getelementptr inbounds nuw i8, ptr %2, i64 20
  %7 = load i32, ptr %6, align 4
  %8 = sub i32 %5, %7
  %.not = icmp ult i32 %8, %1
  br i1 %.not, label %17, label %9

9:                                                ; preds = %3
  %10 = getelementptr inbounds nuw i8, ptr %2, i64 8
  %11 = load ptr, ptr %10, align 8
  %12 = zext i32 %7 to i64
  %13 = getelementptr inbounds nuw i8, ptr %11, i64 %12
  %14 = zext i32 %1 to i64
  tail call void @llvm.memcpy.p0.p0.i64(ptr align 1 %0, ptr align 1 %13, i64 %14, i1 false)
  %15 = load i32, ptr %6, align 4
  %16 = add i32 %15, %1
  store i32 %16, ptr %6, align 4
  br label %18

17:                                               ; preds = %3
  store i8 0, ptr %0, align 1
  br label %18

18:                                               ; preds = %17, %9
  %.0 = phi i32 [ 0, %9 ], [ -1, %17 ]
  ret i32 %.0
}